target datalayout = "e-m:e-p270:32:32-p271:32:32-p272:64:64-i64:64-i128:128-f80:128-n8:16:32:64-S128"
target triple = "x86_64-pc-linux-gnu"

%"class.cmUVJobServerClient::Impl" = type { ptr, ptr, %"struct.cm::uv_idle_ptr", %"class.std::function", %"class.std::function.0", i32, i32 }
%"struct.cm::uv_idle_ptr" = type { %"class.cm::uv_handle_ptr_" }
%"class.cm::uv_handle_ptr_" = type { %"class.cm::uv_handle_ptr_base_" }
%"class.cm::uv_handle_ptr_base_" = type { %"class.std::shared_ptr" }
%"class.std::shared_ptr" = type { %"class.std::__shared_ptr" }
%"class.std::__shared_ptr" = type { ptr, %"class.std::__shared_count" }
%"class.std::__shared_count" = type { ptr }
%"class.std::function" = type { %"class.std::_Function_base", ptr }
%"class.std::_Function_base" = type { %"union.std::_Any_data", ptr }
%"union.std::_Any_data" = type { %"union.std::_Nocopy_types" }
%"union.std::_Nocopy_types" = type { { i64, i64 } }
%"class.std::function.0" = type { %"class.std::_Function_base", ptr }
%"class.(anonymous namespace)::ImplPosix" = type <{ %"class.cmUVJobServerClient::Impl", i32, [4 x i8], %"struct.cm::uv_pipe_ptr", %"struct.cm::uv_pipe_ptr", %"struct.cm::uv_pipe_ptr", %"class.std::shared_ptr.22", i8, i8, [6 x i8] }>
%"struct.cm::uv_pipe_ptr" = type { %"class.cm::uv_handle_ptr_.17" }
%"class.cm::uv_handle_ptr_.17" = type { %"class.cm::uv_handle_ptr_base_.18" }
%"class.cm::uv_handle_ptr_base_.18" = type { %"class.std::shared_ptr.19" }
%"class.std::shared_ptr.19" = type { %"class.std::__shared_ptr.20" }
%"class.std::__shared_ptr.20" = type { ptr, %"class.std::__shared_count" }
%"class.std::shared_ptr.22" = type { %"class.std::__shared_ptr.23" }
%"class.std::__shared_ptr.23" = type { ptr, %"class.std::__shared_count" }

; Function Attrs: mustprogress nounwind uwtable
define linkonce_odr dso_local noundef zeroext i1 @_ZNKSt14_Function_base8_M_emptyEv(ptr noundef nonnull align 8 dereferenceable(24) %0) #5 comdat align 2 {
  %2 = alloca ptr, align 8
  store ptr %0, ptr %2, align 8
  %3 = load ptr, ptr %2, align 8
  %4 = getelementptr inbounds %"class.std::_Function_base", ptr %3, i32 0, i32 1
  %5 = load ptr, ptr %4, align 8
  %6 = icmp ne ptr %5, null
  %7 = xor i1 %6, true
  ret i1 %7
}

; Function Attrs: mustprogress uwtable
define linkonce_odr dso_local void @_ZNKSt8functionIFviEEclEi(ptr noundef nonnull align 8 dereferenceable(32) %0, i32 noundef %1) #4 comdat align 2 {
  %3 = alloca ptr, align 8
  %4 = alloca i32, align 4
  store ptr %0, ptr %3, align 8
  store i32 %1, ptr %4, align 4
  %5 = load ptr, ptr %3, align 8
  %6 = call noundef zeroext i1 @_ZNKSt14_Function_base8_M_emptyEv(ptr noundef nonnull align 8 dereferenceable(24) %5)
  br i1 %6, label %7, label %8

7:                                                ; preds = %2
  call void @_ZSt25__throw_bad_function_callv() #14
  unreachable

8:                                                ; preds = %2
  %9 = getelementptr inbounds %"class.std::function.0", ptr %5, i32 0, i32 1
  %10 = load ptr, ptr %9, align 8
  %11 = getelementptr inbounds %"class.std::_Function_base", ptr %5, i32 0, i32 0
  call void %10(ptr noundef nonnull align 8 dereferenceable(16) %11, ptr noundef nonnull align 4 dereferenceable(4) %4)
  ret void
}

; Function Attrs: mustprogress nounwind uwtable
define linkonce_odr dso_local noundef zeroext i1 @_ZNKSt8functionIFviEEcvbEv(ptr noundef nonnull align 8 dereferenceable(32) %0) #5 comdat align 2 {
  %2 = alloca ptr, align 8
  store ptr %0, ptr %2, align 8
  %3 = load ptr, ptr %2, align 8
  %4 = call noundef zeroext i1 @_ZNKSt14_Function_base8_M_emptyEv(ptr noundef nonnull align 8 dereferenceable(24) %3)
  %5 = xor i1 %4, true
  ret i1 %5
}

; Function Attrs: mustprogress uwtable
define dso_local void @_ZN19cmUVJobServerClient4Impl12DisconnectedEi(ptr noundef nonnull align 8 dereferenceable(104) %0, i32 noundef %1) #4 align 2 {
  %3 = alloca ptr, align 8
  %4 = alloca i32, align 4
  store ptr %0, ptr %3, align 8
  store i32 %1, ptr %4, align 4
  %5 = load ptr, ptr %3, align 8
  %6 = getelementptr inbounds %"class.cmUVJobServerClient::Impl", ptr %5, i32 0, i32 4
  %7 = call noundef zeroext i1 @_ZNKSt8functionIFviEEcvbEv(ptr noundef nonnull align 8 dereferenceable(32) %6) #3
  br i1 %7, label %8, label %11

8:                                                ; preds = %2
  %9 = getelementptr inbounds %"class.cmUVJobServerClient::Impl", ptr %5, i32 0, i32 4
  %10 = load i32, ptr %4, align 4
  call void @_ZNKSt8functionIFviEEclEi(ptr noundef nonnull align 8 dereferenceable(32) %9, i32 noundef %10)
  br label %11

11:                                               ; preds = %8, %2
  ret void
}

; Function Attrs: mustprogress uwtable
define internal void @_ZN12_GLOBAL__N_19ImplPosix10DisconnectEi(ptr noundef nonnull align 8 dereferenceable(178) %0, i32 noundef %1) #4 align 2 {
  %3 = alloca ptr, align 8
  %4 = alloca i32, align 4
  store ptr %0, ptr %3, align 8
  store i32 %1, ptr %4, align 4
  %5 = load ptr, ptr %3, align 8
  %6 = getelementptr inbounds %"class.(anonymous namespace)::ImplPosix", ptr %5, i32 0, i32 1
  %7 = load i32, ptr %6, align 8
  %8 = icmp eq i32 %7, 0
  br i1 %8, label %9, label %10

9:                                                ; preds = %2
  br label %28

10:                                               ; preds = %2
  %11 = load ptr, ptr %5, align 8
  %12 = getelementptr inbounds ptr, ptr %11, i64 4
  %13 = load ptr, ptr %12, align 8
  call void %13(ptr noundef nonnull align 8 dereferenceable(178) %5)
  %14 = getelementptr inbounds %"class.(anonymous namespace)::ImplPosix", ptr %5, i32 0, i32 1
  %15 = load i32, ptr %14, align 8
  switch i32 %15, label %21 [
    i32 1, label %16
    i32 2, label %19
  ]

16:                                               ; preds = %10
  %17 = getelementptr inbounds %"class.(anonymous namespace)::ImplPosix", ptr %5, i32 0, i32 3
  call void @_ZN2cm19uv_handle_ptr_base_I9uv_pipe_sE5resetEv(ptr noundef nonnull align 8 dereferenceable(16) %17)
  %18 = getelementptr inbounds %"class.(anonymous namespace)::ImplPosix", ptr %5, i32 0, i32 4
  call void @_ZN2cm19uv_handle_ptr_base_I9uv_pipe_sE5resetEv(ptr noundef nonnull align 8 dereferenceable(16) %18)
  br label %22

19:                                               ; preds = %10
  %20 = getelementptr inbounds %"class.(anonymous namespace)::ImplPosix", ptr %5, i32 0, i32 5
  call void @_ZN2cm19uv_handle_ptr_base_I9uv_pipe_sE5resetEv(ptr noundef nonnull align 8 dereferenceable(16) %20)
  br label %22

21:                                               ; preds = %10
  br label %22

22:                                               ; preds = %21, %19, %16
  %23 = getelementptr inbounds %"class.(anonymous namespace)::ImplPosix", ptr %5, i32 0, i32 1
  store i32 0, ptr %23, align 8
  %24 = load i32, ptr %4, align 4
  %25 = icmp ne i32 %24, 0
  br i1 %25, label %26, label %28

26:                                               ; preds = %22
  %27 = load i32, ptr %4, align 4
  call void @_ZN19cmUVJobServerClient4Impl12DisconnectedEi(ptr noundef nonnull align 8 dereferenceable(104) %5, i32 noundef %27)
  br label %28

28:                                               ; preds = %26, %22, %9
  ret void
}

; Function Attrs: mustprogress uwtable
define internal noundef ptr @_ZNK12_GLOBAL__N_19ImplPosix9GetReaderEv(ptr noundef nonnull align 8 dereferenceable(178) %0) #4 align 2 {
  %2 = alloca ptr, align 8
  %3 = alloca ptr, align 8
  store ptr %0, ptr %3, align 8
  %4 = load ptr, ptr %3, align 8
  %5 = getelementptr inbounds %"class.(anonymous namespace)::ImplPosix", ptr %4, i32 0, i32 1
  %6 = load i32, ptr %5, align 8
  switch i32 %6, label %13 [
    i32 1, label %7
    i32 2, label %10
  ]

7:                                                ; preds = %1
  %8 = getelementptr inbounds %"class.(anonymous namespace)::ImplPosix", ptr %4, i32 0, i32 3
  %9 = call noundef ptr @_ZNK2cm11uv_pipe_ptrcvP11uv_stream_sEv(ptr noundef nonnull align 8 dereferenceable(16) %8)
  store ptr %9, ptr %2, align 8
  br label %14

10:                                               ; preds = %1
  %11 = getelementptr inbounds %"class.(anonymous namespace)::ImplPosix", ptr %4, i32 0, i32 5
  %12 = call noundef ptr @_ZNK2cm11uv_pipe_ptrcvP11uv_stream_sEv(ptr noundef nonnull align 8 dereferenceable(16) %11)
  store ptr %12, ptr %2, align 8
  br label %14

13:                                               ; preds = %1
  store ptr null, ptr %2, align 8
  br label %14

14:                                               ; preds = %13, %10, %7
  %15 = load ptr, ptr %2, align 8
  ret ptr %15
}

; Function Attrs: mustprogress uwtable
define internal void @_ZN12_GLOBAL__N_19ImplPosix20StartReceivingTokensEv(ptr noundef nonnull align 8 dereferenceable(178) %0) unnamed_addr #4 align 2 {
  %2 = alloca ptr, align 8
  %3 = alloca i32, align 4
  store ptr %0, ptr %2, align 8
  %4 = load ptr, ptr %2, align 8
  %5 = getelementptr inbounds %"class.(anonymous namespace)::ImplPosix", ptr %4, i32 0, i32 1
  %6 = load i32, ptr %5, align 8
  %7 = icmp eq i32 %6, 0
  br i1 %7, label %8, label %9

8:                                                ; preds = %1
  br label %23

9:                                                ; preds = %1
  %10 = getelementptr inbounds %"class.(anonymous namespace)::ImplPosix", ptr %4, i32 0, i32 8
  %11 = load i8, ptr %10, align 1
  %12 = trunc i8 %11 to i1
  br i1 %12, label %13, label %14

13:                                               ; preds = %9
  br label %23

14:                                               ; preds = %9
  %15 = call noundef ptr @_ZNK12_GLOBAL__N_19ImplPosix9GetReaderEv(ptr noundef nonnull align 8 dereferenceable(178) %4)
  %16 = call i32 @uv_read_start(ptr noundef %15, ptr noundef @_ZN12_GLOBAL__N_19ImplPosix12OnAllocateCBEP11uv_handle_smP8uv_buf_t, ptr noundef @_ZN12_GLOBAL__N_19ImplPosix8OnReadCBEP11uv_stream_slPK8uv_buf_t)
  store i32 %16, ptr %3, align 4
  %17 = load i32, ptr %3, align 4
  %18 = icmp ne i32 %17, 0
  br i1 %18, label %19, label %21

19:                                               ; preds = %14
  %20 = load i32, ptr %3, align 4
  call void @_ZN12_GLOBAL__N_19ImplPosix10DisconnectEi(ptr noundef nonnull align 8 dereferenceable(178) %4, i32 noundef %20)
  br label %23

21:                                               ; preds = %14
  %22 = getelementptr inbounds %"class.(anonymous namespace)::ImplPosix", ptr %4, i32 0, i32 8
  store i8 1, ptr %22, align 1
  br label %23

23:                                               ; preds = %21, %19, %13, %8
  ret void
}