; Function Attrs: mustprogress uwtable
define internal void @_ZN12_GLOBAL__N_19ImplPosix20StartReceivingTokensEv(ptr noundef nonnull align 8 dereferenceable(178) %0) unnamed_addr #3 align 2 {
  %2 = alloca i32, align 4
  %3 = getelementptr inbounds i8, ptr %0, i64 104
  %4 = load i32, ptr %3, align 8
  %5 = icmp eq i32 %4, 0
  br i1 %5, label %_ZN12_GLOBAL__N_19ImplPosix10DisconnectEi.exit, label %6

6:                                                ; preds = %1
  %7 = getelementptr inbounds i8, ptr %0, i64 177
  %8 = load i8, ptr %7, align 1
  %9 = and i8 %8, 1
  %.not = icmp eq i8 %9, 0
  br i1 %.not, label %10, label %_ZN12_GLOBAL__N_19ImplPosix10DisconnectEi.exit

10:                                               ; preds = %6
  switch i32 %4, label %_ZNK12_GLOBAL__N_19ImplPosix9GetReaderEv.exit [
    i32 1, label %.sink.split.i
    i32 2, label %11
  ]

11:                                               ; preds = %10
  br label %.sink.split.i

.sink.split.i:                                    ; preds = %11, %10
  %.sink2.i = phi i64 [ 144, %11 ], [ 112, %10 ]
  %12 = getelementptr inbounds i8, ptr %0, i64 %.sink2.i
  %13 = tail call noundef ptr @_ZNK2cm11uv_pipe_ptrcvP11uv_stream_sEv(ptr noundef nonnull align 8 dereferenceable(16) %12)
  br label %_ZNK12_GLOBAL__N_19ImplPosix9GetReaderEv.exit

_ZNK12_GLOBAL__N_19ImplPosix9GetReaderEv.exit:    ; preds = %10, %.sink.split.i
  %.0.i = phi ptr [ null, %10 ], [ %13, %.sink.split.i ]
  %14 = tail call i32 @uv_read_start(ptr noundef %.0.i, ptr noundef nonnull @_ZN12_GLOBAL__N_19ImplPosix12OnAllocateCBEP11uv_handle_smP8uv_buf_t, ptr noundef nonnull @_ZN12_GLOBAL__N_19ImplPosix8OnReadCBEP11uv_stream_slPK8uv_buf_t)
  %.not2 = icmp eq i32 %14, 0
  br i1 %.not2, label %32, label %15

15:                                               ; preds = %_ZNK12_GLOBAL__N_19ImplPosix9GetReaderEv.exit
  %16 = load i32, ptr %3, align 8
  %17 = icmp eq i32 %16, 0
  br i1 %17, label %_ZN12_GLOBAL__N_19ImplPosix10DisconnectEi.exit, label %18

18:                                               ; preds = %15
  %19 = load ptr, ptr %0, align 8
  %20 = getelementptr inbounds i8, ptr %19, i64 32
  %21 = load ptr, ptr %20, align 8
  tail call void %21(ptr noundef nonnull align 8 dereferenceable(178) %0)
  %22 = load i32, ptr %3, align 8
  switch i32 %22, label %26 [
    i32 1, label %23
    i32 2, label %.sink.split.i3
  ]

23:                                               ; preds = %18
  %24 = getelementptr inbounds i8, ptr %0, i64 112
  tail call void @_ZN2cm19uv_handle_ptr_base_I9uv_pipe_sE5resetEv(ptr noundef nonnull align 8 dereferenceable(16) %24)
  br label %.sink.split.i3

.sink.split.i3:                                   ; preds = %23, %18
  %.sink3.i = phi i64 [ 128, %23 ], [ 144, %18 ]
  %25 = getelementptr inbounds i8, ptr %0, i64 %.sink3.i
  tail call void @_ZN2cm19uv_handle_ptr_base_I9uv_pipe_sE5resetEv(ptr noundef nonnull align 8 dereferenceable(16) %25)
  br label %26

26:                                               ; preds = %.sink.split.i3, %18
  store i32 0, ptr %3, align 8
  %27 = getelementptr inbounds i8, ptr %0, i64 80
  %28 = load ptr, ptr %27, align 8
  %.not.i.i.not.i.i = icmp eq ptr %28, null
  br i1 %.not.i.i.not.i.i, label %_ZN12_GLOBAL__N_19ImplPosix10DisconnectEi.exit, label %_ZNKSt8functionIFviEEclEi.exit.i.i

_ZNKSt8functionIFviEEclEi.exit.i.i:               ; preds = %26
  %29 = getelementptr inbounds i8, ptr %0, i64 64
  call void @llvm.lifetime.start.p0(i64 4, ptr nonnull %2)
  store i32 %14, ptr %2, align 4
  %30 = getelementptr inbounds i8, ptr %0, i64 88
  %31 = load ptr, ptr %30, align 8
  call void %31(ptr noundef nonnull align 8 dereferenceable(16) %29, ptr noundef nonnull align 4 dereferenceable(4) %2)
  call void @llvm.lifetime.end.p0(i64 4, ptr nonnull %2)
  br label %_ZN12_GLOBAL__N_19ImplPosix10DisconnectEi.exit

32:                                               ; preds = %_ZNK12_GLOBAL__N_19ImplPosix9GetReaderEv.exit
  store i8 1, ptr %7, align 1
  br label %_ZN12_GLOBAL__N_19ImplPosix10DisconnectEi.exit

_ZN12_GLOBAL__N_19ImplPosix10DisconnectEi.exit:   ; preds = %_ZNKSt8functionIFviEEclEi.exit.i.i, %26, %15, %6, %1, %32
  ret void
}